target datalayout = "e-m:e-p270:32:32-p271:32:32-p272:64:64-i64:64-i128:128-f80:128-n8:16:32:64-S128"
target triple = "x86_64-pc-linux-gnu"

%struct.Agobj_s = type { %struct.Agtag_s, ptr }
%struct.Agtag_s = type { i32, i64 }
%struct.Agnodeinfo_t = type { %struct.Agrec_s, ptr, ptr, %struct.pointf_s, double, double, %struct.boxf, double, double, double, double, double, ptr, ptr, ptr, i8, i8, i8, i8, i32, i32, i32, ptr, double, i8, i8, ptr, ptr, i8, i64, i8, i8, i8, ptr, ptr, %struct.elist, %struct.elist, %struct.elist, %struct.elist, %struct.elist, ptr, i32, ptr, i32, i32, double, %struct.elist, %struct.elist, %struct.elist, %struct.elist, ptr, i32, i32, i32, [1 x double] }
%struct.Agrec_s = type { ptr, ptr }
%struct.pointf_s = type { double, double }
%struct.boxf = type { %struct.pointf_s, %struct.pointf_s }
%struct.elist = type { ptr, i64 }

; Function Attrs: nounwind uwtable
define internal i32 @cmpDegree(ptr noundef %0, ptr noundef %1) #0 {
  %3 = alloca i32, align 4
  %4 = alloca ptr, align 8
  %5 = alloca ptr, align 8
  store ptr %0, ptr %4, align 8, !tbaa !22
  store ptr %1, ptr %5, align 8, !tbaa !22
  %6 = load ptr, ptr %4, align 8, !tbaa !22
  %7 = load ptr, ptr %6, align 8, !tbaa !24
  %8 = getelementptr inbounds nuw %struct.Agobj_s, ptr %7, i32 0, i32 1
  %9 = load ptr, ptr %8, align 8, !tbaa !25
  %10 = getelementptr inbounds nuw %struct.Agnodeinfo_t, ptr %9, i32 0, i32 44
  %11 = load i32, ptr %10, align 4, !tbaa !62
  %12 = load ptr, ptr %5, align 8, !tbaa !22
  %13 = load ptr, ptr %12, align 8, !tbaa !24
  %14 = getelementptr inbounds nuw %struct.Agobj_s, ptr %13, i32 0, i32 1
  %15 = load ptr, ptr %14, align 8, !tbaa !25
  %16 = getelementptr inbounds nuw %struct.Agnodeinfo_t, ptr %15, i32 0, i32 44
  %17 = load i32, ptr %16, align 4, !tbaa !62
  %18 = icmp slt i32 %11, %17
  br i1 %18, label %19, label %20

19:                                               ; preds = %2
  store i32 1, ptr %3, align 4
  br label %36

20:                                               ; preds = %2
  %21 = load ptr, ptr %4, align 8, !tbaa !22
  %22 = load ptr, ptr %21, align 8, !tbaa !24
  %23 = getelementptr inbounds nuw %struct.Agobj_s, ptr %22, i32 0, i32 1
  %24 = load ptr, ptr %23, align 8, !tbaa !25
  %25 = getelementptr inbounds nuw %struct.Agnodeinfo_t, ptr %24, i32 0, i32 44
  %26 = load i32, ptr %25, align 4, !tbaa !62
  %27 = load ptr, ptr %5, align 8, !tbaa !22
  %28 = load ptr, ptr %27, align 8, !tbaa !24
  %29 = getelementptr inbounds nuw %struct.Agobj_s, ptr %28, i32 0, i32 1
  %30 = load ptr, ptr %29, align 8, !tbaa !25
  %31 = getelementptr inbounds nuw %struct.Agnodeinfo_t, ptr %30, i32 0, i32 44
  %32 = load i32, ptr %31, align 4, !tbaa !62
  %33 = icmp sgt i32 %26, %32
  br i1 %33, label %34, label %35

34:                                               ; preds = %20
  store i32 -1, ptr %3, align 4
  br label %36

35:                                               ; preds = %20
  store i32 0, ptr %3, align 4
  br label %36

36:                                               ; preds = %35, %34, %19
  %37 = load i32, ptr %3, align 4
  ret i32 %37
}