; Function Attrs: mustprogress nofree norecurse nosync nounwind willreturn memory(read, inaccessiblemem: none) uwtable
define internal range(i32 -1, 2) i32 @cmpDegree(ptr noundef readonly captures(none) %0, ptr noundef readonly captures(none) %1) #5 {
  %3 = load ptr, ptr %0, align 8, !tbaa !63
  %4 = getelementptr inbounds nuw i8, ptr %3, i64 16
  %5 = load ptr, ptr %4, align 8, !tbaa !24
  %6 = getelementptr inbounds nuw i8, ptr %5, i64 364
  %7 = load i32, ptr %6, align 4, !tbaa !55
  %8 = load ptr, ptr %1, align 8, !tbaa !63
  %9 = getelementptr inbounds nuw i8, ptr %8, i64 16
  %10 = load ptr, ptr %9, align 8, !tbaa !24
  %11 = getelementptr inbounds nuw i8, ptr %10, i64 364
  %12 = load i32, ptr %11, align 4, !tbaa !55
  %.0 = tail call i32 @llvm.scmp.i32.i32(i32 %12, i32 %7)
  ret i32 %.0
}